target datalayout = "e-m:e-p270:32:32-p271:32:32-p272:64:64-i64:64-i128:128-f80:128-n8:16:32:64-S128"
target triple = "x86_64-pc-linux-gnu"

%struct.quic_rcidm_st = type { %struct.quic_conn_id_st, %struct.quic_conn_id_st, %struct.quic_conn_id_st, i64, i64, i64, ptr, ptr, %struct.ossl_list_st_retiring, i64, i8 }
%struct.quic_conn_id_st = type { i8, [20 x i8] }
%struct.ossl_list_st_retiring = type { ptr, ptr, i64 }
%struct.rcid_st = type { %struct.anon, %struct.quic_conn_id_st, i64, i64, i8 }
%struct.anon = type { ptr, ptr }

@.str = private unnamed_addr constant [33 x i8] c"../openssl/ssl/quic/quic_rcidm.c\00", align 1

; Function Attrs: nounwind uwtable
define internal void @rcidm_check_rcid(ptr noundef %0, ptr noundef %1) #0 {
  %3 = alloca ptr, align 8
  %4 = alloca ptr, align 8
  store ptr %0, ptr %3, align 8, !tbaa !8
  store ptr %1, ptr %4, align 8, !tbaa !21
  ret void
}

; Function Attrs: inlinehint nounwind uwtable
define internal void @ossl_list_retiring_insert_tail(ptr noundef %0, ptr noundef %1) #3 {
  %3 = alloca ptr, align 8
  %4 = alloca ptr, align 8
  store ptr %0, ptr %3, align 8, !tbaa !30
  store ptr %1, ptr %4, align 8, !tbaa !21
  %5 = load ptr, ptr %3, align 8, !tbaa !30
  %6 = getelementptr inbounds nuw %struct.ossl_list_st_retiring, ptr %5, i32 0, i32 1
  %7 = load ptr, ptr %6, align 8, !tbaa !50
  %8 = icmp ne ptr %7, null
  br i1 %8, label %9, label %16

9:                                                ; preds = %2
  %10 = load ptr, ptr %4, align 8, !tbaa !21
  %11 = load ptr, ptr %3, align 8, !tbaa !30
  %12 = getelementptr inbounds nuw %struct.ossl_list_st_retiring, ptr %11, i32 0, i32 1
  %13 = load ptr, ptr %12, align 8, !tbaa !50
  %14 = getelementptr inbounds nuw %struct.rcid_st, ptr %13, i32 0, i32 0
  %15 = getelementptr inbounds nuw %struct.anon, ptr %14, i32 0, i32 0
  store ptr %10, ptr %15, align 8, !tbaa !33
  br label %16

16:                                               ; preds = %9, %2
  %17 = load ptr, ptr %3, align 8, !tbaa !30
  %18 = getelementptr inbounds nuw %struct.ossl_list_st_retiring, ptr %17, i32 0, i32 1
  %19 = load ptr, ptr %18, align 8, !tbaa !50
  %20 = load ptr, ptr %4, align 8, !tbaa !21
  %21 = getelementptr inbounds nuw %struct.rcid_st, ptr %20, i32 0, i32 0
  %22 = getelementptr inbounds nuw %struct.anon, ptr %21, i32 0, i32 1
  store ptr %19, ptr %22, align 8, !tbaa !51
  %23 = load ptr, ptr %4, align 8, !tbaa !21
  %24 = getelementptr inbounds nuw %struct.rcid_st, ptr %23, i32 0, i32 0
  %25 = getelementptr inbounds nuw %struct.anon, ptr %24, i32 0, i32 0
  store ptr null, ptr %25, align 8, !tbaa !33
  %26 = load ptr, ptr %4, align 8, !tbaa !21
  %27 = load ptr, ptr %3, align 8, !tbaa !30
  %28 = getelementptr inbounds nuw %struct.ossl_list_st_retiring, ptr %27, i32 0, i32 1
  store ptr %26, ptr %28, align 8, !tbaa !50
  %29 = load ptr, ptr %3, align 8, !tbaa !30
  %30 = getelementptr inbounds nuw %struct.ossl_list_st_retiring, ptr %29, i32 0, i32 0
  %31 = load ptr, ptr %30, align 8, !tbaa !32
  %32 = icmp eq ptr %31, null
  br i1 %32, label %33, label %37

33:                                               ; preds = %16
  %34 = load ptr, ptr %4, align 8, !tbaa !21
  %35 = load ptr, ptr %3, align 8, !tbaa !30
  %36 = getelementptr inbounds nuw %struct.ossl_list_st_retiring, ptr %35, i32 0, i32 0
  store ptr %34, ptr %36, align 8, !tbaa !32
  br label %37

37:                                               ; preds = %33, %16
  %38 = load ptr, ptr %3, align 8, !tbaa !30
  %39 = getelementptr inbounds nuw %struct.ossl_list_st_retiring, ptr %38, i32 0, i32 2
  %40 = load i64, ptr %39, align 8, !tbaa !52
  %41 = add i64 %40, 1
  store i64 %41, ptr %39, align 8, !tbaa !52
  ret void
}

; Function Attrs: inlinehint nounwind uwtable
define internal i32 @ossl_pqueue_RCID_push(ptr noundef %0, ptr noundef %1, ptr noundef %2) #3 {
  %4 = alloca ptr, align 8
  %5 = alloca ptr, align 8
  %6 = alloca ptr, align 8
  store ptr %0, ptr %4, align 8, !tbaa !29
  store ptr %1, ptr %5, align 8, !tbaa !21
  store ptr %2, ptr %6, align 8, !tbaa !48
  %7 = load ptr, ptr %4, align 8, !tbaa !29
  %8 = load ptr, ptr %5, align 8, !tbaa !21
  %9 = load ptr, ptr %6, align 8, !tbaa !48
  %10 = call i32 @ossl_pqueue_push(ptr noundef %7, ptr noundef %8, ptr noundef %9)
  ret i32 %10
}

; Function Attrs: inlinehint nounwind uwtable
define internal i64 @ossl_pqueue_RCID_num(ptr noundef %0) #3 {
  %2 = alloca ptr, align 8
  store ptr %0, ptr %2, align 8, !tbaa !29
  %3 = load ptr, ptr %2, align 8, !tbaa !29
  %4 = call i64 @ossl_pqueue_num(ptr noundef %3)
  ret i64 %4
}

; Function Attrs: nounwind uwtable
define internal ptr @rcidm_create_rcid(ptr noundef %0, i64 noundef %1, ptr noundef %2, i32 noundef %3) #0 {
  %5 = alloca ptr, align 8
  %6 = alloca ptr, align 8
  %7 = alloca i64, align 8
  %8 = alloca ptr, align 8
  %9 = alloca i32, align 4
  %10 = alloca ptr, align 8
  %11 = alloca i32, align 4
  store ptr %0, ptr %6, align 8, !tbaa !8
  store i64 %1, ptr %7, align 8, !tbaa !34
  store ptr %2, ptr %8, align 8, !tbaa !3
  store i32 %3, ptr %9, align 4, !tbaa !36
  call void @llvm.lifetime.start.p0(i64 8, ptr %10) #7
  %12 = load ptr, ptr %8, align 8, !tbaa !3
  %13 = getelementptr inbounds nuw %struct.quic_conn_id_st, ptr %12, i32 0, i32 0
  %14 = load i8, ptr %13, align 1, !tbaa !37
  %15 = zext i8 %14 to i32
  %16 = icmp slt i32 %15, 1
  br i1 %16, label %36, label %17

17:                                               ; preds = %4
  %18 = load ptr, ptr %8, align 8, !tbaa !3
  %19 = getelementptr inbounds nuw %struct.quic_conn_id_st, ptr %18, i32 0, i32 0
  %20 = load i8, ptr %19, align 1, !tbaa !37
  %21 = zext i8 %20 to i32
  %22 = icmp sgt i32 %21, 20
  br i1 %22, label %36, label %23

23:                                               ; preds = %17
  %24 = load i64, ptr %7, align 8, !tbaa !34
  %25 = icmp ugt i64 %24, 4611686018427387903
  br i1 %25, label %36, label %26

26:                                               ; preds = %23
  %27 = load ptr, ptr %6, align 8, !tbaa !8
  %28 = getelementptr inbounds nuw %struct.quic_rcidm_st, ptr %27, i32 0, i32 6
  %29 = load ptr, ptr %28, align 8, !tbaa !10
  %30 = call i64 @ossl_pqueue_RCID_num(ptr noundef %29)
  %31 = load ptr, ptr %6, align 8, !tbaa !8
  %32 = getelementptr inbounds nuw %struct.quic_rcidm_st, ptr %31, i32 0, i32 9
  %33 = load i64, ptr %32, align 8, !tbaa !38
  %34 = add i64 %30, %33
  %35 = icmp ugt i64 %34, 9223372036854775807
  br i1 %35, label %36, label %37

36:                                               ; preds = %26, %23, %17, %4
  store ptr null, ptr %5, align 8
  store i32 1, ptr %11, align 4
  br label %100

37:                                               ; preds = %26
  %38 = call noalias ptr @CRYPTO_zalloc(i64 noundef 64, ptr noundef @.str, i32 noundef 353)
  store ptr %38, ptr %10, align 8, !tbaa !21
  %39 = icmp eq ptr %38, null
  br i1 %39, label %40, label %41

40:                                               ; preds = %37
  store ptr null, ptr %5, align 8
  store i32 1, ptr %11, align 4
  br label %100

41:                                               ; preds = %37
  %42 = load i64, ptr %7, align 8, !tbaa !34
  %43 = load ptr, ptr %10, align 8, !tbaa !21
  %44 = getelementptr inbounds nuw %struct.rcid_st, ptr %43, i32 0, i32 2
  store i64 %42, ptr %44, align 8, !tbaa !22
  %45 = load ptr, ptr %10, align 8, !tbaa !21
  %46 = getelementptr inbounds nuw %struct.rcid_st, ptr %45, i32 0, i32 1
  %47 = load ptr, ptr %8, align 8, !tbaa !3
  call void @llvm.memcpy.p0.p0.i64(ptr align 8 %46, ptr align 1 %47, i64 21, i1 false), !tbaa.struct !18
  %48 = load i32, ptr %9, align 4, !tbaa !36
  %49 = load ptr, ptr %10, align 8, !tbaa !21
  %50 = getelementptr inbounds nuw %struct.rcid_st, ptr %49, i32 0, i32 4
  %51 = trunc i32 %48 to i8
  %52 = load i8, ptr %50, align 8
  %53 = and i8 %51, 3
  %54 = shl i8 %53, 2
  %55 = and i8 %52, -13
  %56 = or i8 %55, %54
  store i8 %56, ptr %50, align 8
  %57 = load ptr, ptr %10, align 8, !tbaa !21
  %58 = getelementptr inbounds nuw %struct.rcid_st, ptr %57, i32 0, i32 2
  %59 = load i64, ptr %58, align 8, !tbaa !22
  %60 = load ptr, ptr %6, align 8, !tbaa !8
  %61 = getelementptr inbounds nuw %struct.quic_rcidm_st, ptr %60, i32 0, i32 5
  %62 = load i64, ptr %61, align 8, !tbaa !39
  %63 = icmp uge i64 %59, %62
  br i1 %63, label %64, label %81

64:                                               ; preds = %41
  %65 = load ptr, ptr %10, align 8, !tbaa !21
  %66 = getelementptr inbounds nuw %struct.rcid_st, ptr %65, i32 0, i32 4
  %67 = load i8, ptr %66, align 8
  %68 = and i8 %67, -4
  %69 = or i8 %68, 0
  store i8 %69, ptr %66, align 8
  %70 = load ptr, ptr %6, align 8, !tbaa !8
  %71 = getelementptr inbounds nuw %struct.quic_rcidm_st, ptr %70, i32 0, i32 6
  %72 = load ptr, ptr %71, align 8, !tbaa !10
  %73 = load ptr, ptr %10, align 8, !tbaa !21
  %74 = load ptr, ptr %10, align 8, !tbaa !21
  %75 = getelementptr inbounds nuw %struct.rcid_st, ptr %74, i32 0, i32 3
  %76 = call i32 @ossl_pqueue_RCID_push(ptr noundef %72, ptr noundef %73, ptr noundef %75)
  %77 = icmp ne i32 %76, 0
  br i1 %77, label %80, label %78

78:                                               ; preds = %64
  %79 = load ptr, ptr %10, align 8, !tbaa !21
  call void @CRYPTO_free(ptr noundef %79, ptr noundef @.str, i32 noundef 364)
  store ptr null, ptr %5, align 8
  store i32 1, ptr %11, align 4
  br label %100

80:                                               ; preds = %64
  br label %96

81:                                               ; preds = %41
  %82 = load ptr, ptr %10, align 8, !tbaa !21
  %83 = getelementptr inbounds nuw %struct.rcid_st, ptr %82, i32 0, i32 4
  %84 = load i8, ptr %83, align 8
  %85 = and i8 %84, -4
  %86 = or i8 %85, 2
  store i8 %86, ptr %83, align 8
  %87 = load ptr, ptr %10, align 8, !tbaa !21
  %88 = getelementptr inbounds nuw %struct.rcid_st, ptr %87, i32 0, i32 3
  store i64 -1, ptr %88, align 8, !tbaa !40
  %89 = load ptr, ptr %6, align 8, !tbaa !8
  %90 = getelementptr inbounds nuw %struct.quic_rcidm_st, ptr %89, i32 0, i32 8
  %91 = load ptr, ptr %10, align 8, !tbaa !21
  call void @ossl_list_retiring_insert_tail(ptr noundef %90, ptr noundef %91)
  %92 = load ptr, ptr %6, align 8, !tbaa !8
  %93 = getelementptr inbounds nuw %struct.quic_rcidm_st, ptr %92, i32 0, i32 9
  %94 = load i64, ptr %93, align 8, !tbaa !38
  %95 = add i64 %94, 1
  store i64 %95, ptr %93, align 8, !tbaa !38
  br label %96

96:                                               ; preds = %81, %80
  %97 = load ptr, ptr %6, align 8, !tbaa !8
  %98 = load ptr, ptr %10, align 8, !tbaa !21
  call void @rcidm_check_rcid(ptr noundef %97, ptr noundef %98)
  %99 = load ptr, ptr %10, align 8, !tbaa !21
  store ptr %99, ptr %5, align 8
  store i32 1, ptr %11, align 4
  br label %100

100:                                              ; preds = %96, %78, %40, %36
  call void @llvm.lifetime.end.p0(i64 8, ptr %10) #7
  %101 = load ptr, ptr %5, align 8
  ret ptr %101
}