; Function Attrs: nounwind uwtable
define internal fastcc ptr @rcidm_create_rcid(ptr noundef captures(none) %0, i64 noundef %1, ptr noundef readonly captures(none) %2, i32 noundef range(i32 0, 3) %3) unnamed_addr #0 {
  %5 = load i8, ptr %2, align 1, !tbaa !20
  %6 = icmp eq i8 %5, 0
  br i1 %6, label %53, label %7

7:                                                ; preds = %4
  %8 = icmp ugt i8 %5, 20
  %9 = icmp ugt i64 %1, 4611686018427387903
  %or.cond = or i1 %9, %8
  br i1 %or.cond, label %53, label %10

10:                                               ; preds = %7
  %11 = getelementptr inbounds nuw i8, ptr %0, i64 88
  %12 = load ptr, ptr %11, align 8, !tbaa !3
  %13 = tail call i64 @ossl_pqueue_num(ptr noundef %12) #9
  %14 = getelementptr inbounds nuw i8, ptr %0, i64 128
  %15 = load i64, ptr %14, align 8, !tbaa !28
  %16 = add i64 %15, %13
  %17 = icmp slt i64 %16, 0
  br i1 %17, label %53, label %18

18:                                               ; preds = %10
  %19 = tail call noalias ptr @CRYPTO_zalloc(i64 noundef 64, ptr noundef nonnull @.str, i32 noundef 353) #9
  %20 = icmp eq ptr %19, null
  br i1 %20, label %53, label %21

21:                                               ; preds = %18
  %22 = getelementptr inbounds nuw i8, ptr %19, i64 40
  store i64 %1, ptr %22, align 8, !tbaa !16
  %23 = getelementptr inbounds nuw i8, ptr %19, i64 16
  tail call void @llvm.memcpy.p0.p0.i64(ptr noundef nonnull align 8 dereferenceable(21) %23, ptr noundef nonnull align 1 dereferenceable(21) %2, i64 21, i1 false), !tbaa.struct !14
  %24 = getelementptr inbounds nuw i8, ptr %19, i64 56
  %25 = trunc nuw nsw i32 %3 to i8
  %26 = load i8, ptr %24, align 8
  %27 = shl nuw nsw i8 %25, 2
  %28 = and i8 %26, -16
  %29 = or disjoint i8 %28, %27
  %30 = getelementptr inbounds nuw i8, ptr %0, i64 80
  %31 = load i64, ptr %30, align 8, !tbaa !29
  %.not = icmp ult i64 %1, %31
  %32 = getelementptr inbounds nuw i8, ptr %19, i64 48
  br i1 %.not, label %37, label %33

33:                                               ; preds = %21
  store i8 %29, ptr %24, align 8
  %34 = load ptr, ptr %11, align 8, !tbaa !3
  %35 = tail call i32 @ossl_pqueue_push(ptr noundef %34, ptr noundef nonnull %19, ptr noundef nonnull %32) #9
  %.not30 = icmp eq i32 %35, 0
  br i1 %.not30, label %36, label %53

36:                                               ; preds = %33
  tail call void @CRYPTO_free(ptr noundef nonnull %19, ptr noundef nonnull @.str, i32 noundef 364) #9
  br label %53

37:                                               ; preds = %21
  %38 = or disjoint i8 %29, 2
  store i8 %38, ptr %24, align 8
  store i64 -1, ptr %32, align 8, !tbaa !30
  %39 = getelementptr inbounds nuw i8, ptr %0, i64 104
  %40 = getelementptr inbounds nuw i8, ptr %0, i64 112
  %41 = load ptr, ptr %40, align 8, !tbaa !31
  %.not.i = icmp eq ptr %41, null
  br i1 %.not.i, label %43, label %42

42:                                               ; preds = %37
  store ptr %19, ptr %41, align 8, !tbaa !24
  br label %43

43:                                               ; preds = %42, %37
  %44 = getelementptr inbounds nuw i8, ptr %19, i64 8
  store ptr %41, ptr %44, align 8, !tbaa !32
  store ptr null, ptr %19, align 8, !tbaa !24
  store ptr %19, ptr %40, align 8, !tbaa !31
  %45 = load ptr, ptr %39, align 8, !tbaa !23
  %46 = icmp eq ptr %45, null
  br i1 %46, label %47, label %ossl_list_retiring_insert_tail.exit

47:                                               ; preds = %43
  store ptr %19, ptr %39, align 8, !tbaa !23
  br label %ossl_list_retiring_insert_tail.exit

ossl_list_retiring_insert_tail.exit:              ; preds = %43, %47
  %48 = getelementptr inbounds nuw i8, ptr %0, i64 120
  %49 = load i64, ptr %48, align 8, !tbaa !33
  %50 = add i64 %49, 1
  store i64 %50, ptr %48, align 8, !tbaa !33
  %51 = load i64, ptr %14, align 8, !tbaa !28
  %52 = add i64 %51, 1
  store i64 %52, ptr %14, align 8, !tbaa !28
  br label %53

53:                                               ; preds = %ossl_list_retiring_insert_tail.exit, %33, %18, %4, %7, %10, %36
  %.0 = phi ptr [ null, %36 ], [ null, %10 ], [ null, %7 ], [ null, %4 ], [ null, %18 ], [ %19, %33 ], [ %19, %ossl_list_retiring_insert_tail.exit ]
  ret ptr %.0
}